target datalayout = "e-m:e-p270:32:32-p271:32:32-p272:64:64-i64:64-i128:128-f80:128-n8:16:32:64-S128"
target triple = "x86_64-pc-linux-gnu"

; Function Attrs: inlinehint nounwind uwtable
define internal i64 @constant_time_msb_s(i64 noundef %0) #2 {
  %2 = alloca i64, align 8
  store i64 %0, ptr %2, align 8, !tbaa !8
  %3 = load i64, ptr %2, align 8, !tbaa !8
  %4 = lshr i64 %3, 63
  %5 = sub i64 0, %4
  ret i64 %5
}

; Function Attrs: inlinehint nounwind uwtable
define internal i64 @constant_time_is_zero_s(i64 noundef %0) #2 {
  %2 = alloca i64, align 8
  store i64 %0, ptr %2, align 8, !tbaa !8
  %3 = load i64, ptr %2, align 8, !tbaa !8
  %4 = xor i64 %3, -1
  %5 = load i64, ptr %2, align 8, !tbaa !8
  %6 = sub i64 %5, 1
  %7 = and i64 %4, %6
  %8 = call i64 @constant_time_msb_s(i64 noundef %7)
  ret i64 %8
}

; Function Attrs: inlinehint nounwind uwtable
define internal i64 @constant_time_lt_s(i64 noundef %0, i64 noundef %1) #2 {
  %3 = alloca i64, align 8
  %4 = alloca i64, align 8
  store i64 %0, ptr %3, align 8, !tbaa !8
  store i64 %1, ptr %4, align 8, !tbaa !8
  %5 = load i64, ptr %3, align 8, !tbaa !8
  %6 = load i64, ptr %3, align 8, !tbaa !8
  %7 = load i64, ptr %4, align 8, !tbaa !8
  %8 = xor i64 %6, %7
  %9 = load i64, ptr %3, align 8, !tbaa !8
  %10 = load i64, ptr %4, align 8, !tbaa !8
  %11 = sub i64 %9, %10
  %12 = load i64, ptr %4, align 8, !tbaa !8
  %13 = xor i64 %11, %12
  %14 = or i64 %8, %13
  %15 = xor i64 %5, %14
  %16 = call i64 @constant_time_msb_s(i64 noundef %15)
  ret i64 %16
}

; Function Attrs: inlinehint nounwind uwtable
define internal i64 @constant_time_eq_s(i64 noundef %0, i64 noundef %1) #2 {
  %3 = alloca i64, align 8
  %4 = alloca i64, align 8
  store i64 %0, ptr %3, align 8, !tbaa !8
  store i64 %1, ptr %4, align 8, !tbaa !8
  %5 = load i64, ptr %3, align 8, !tbaa !8
  %6 = load i64, ptr %4, align 8, !tbaa !8
  %7 = xor i64 %5, %6
  %8 = call i64 @constant_time_is_zero_s(i64 noundef %7)
  ret i64 %8
}

; Function Attrs: inlinehint nounwind uwtable
define internal zeroext i8 @constant_time_ge_8_s(i64 noundef %0, i64 noundef %1) #2 {
  %3 = alloca i64, align 8
  %4 = alloca i64, align 8
  store i64 %0, ptr %3, align 8, !tbaa !8
  store i64 %1, ptr %4, align 8, !tbaa !8
  %5 = load i64, ptr %3, align 8, !tbaa !8
  %6 = load i64, ptr %4, align 8, !tbaa !8
  %7 = call i64 @constant_time_ge_s(i64 noundef %5, i64 noundef %6)
  %8 = trunc i64 %7 to i8
  ret i8 %8
}

; Function Attrs: inlinehint nounwind uwtable
define internal i64 @constant_time_ge_s(i64 noundef %0, i64 noundef %1) #2 {
  %3 = alloca i64, align 8
  %4 = alloca i64, align 8
  store i64 %0, ptr %3, align 8, !tbaa !8
  store i64 %1, ptr %4, align 8, !tbaa !8
  %5 = load i64, ptr %3, align 8, !tbaa !8
  %6 = load i64, ptr %4, align 8, !tbaa !8
  %7 = call i64 @constant_time_lt_s(i64 noundef %5, i64 noundef %6)
  %8 = xor i64 %7, -1
  ret i64 %8
}

; Function Attrs: nounwind uwtable
define i32 @tls1_cbc_remove_padding_and_mac(ptr noundef %0, i64 noundef %1, ptr noundef %2, ptr noundef %3, ptr noundef %4, i64 noundef %5, i64 noundef %6, i32 noundef %7, ptr noundef %8) #0 {
  %10 = alloca i32, align 4
  %11 = alloca ptr, align 8
  %12 = alloca i64, align 8
  %13 = alloca ptr, align 8
  %14 = alloca ptr, align 8
  %15 = alloca ptr, align 8
  %16 = alloca i64, align 8
  %17 = alloca i64, align 8
  %18 = alloca i32, align 4
  %19 = alloca ptr, align 8
  %20 = alloca i64, align 8
  %21 = alloca i64, align 8
  %22 = alloca i64, align 8
  %23 = alloca i64, align 8
  %24 = alloca i64, align 8
  %25 = alloca i32, align 4
  %26 = alloca i8, align 1
  %27 = alloca i8, align 1
  store ptr %0, ptr %11, align 8, !tbaa !3
  store i64 %1, ptr %12, align 8, !tbaa !8
  store ptr %2, ptr %13, align 8, !tbaa !10
  store ptr %3, ptr %14, align 8, !tbaa !12
  store ptr %4, ptr %15, align 8, !tbaa !14
  store i64 %5, ptr %16, align 8, !tbaa !8
  store i64 %6, ptr %17, align 8, !tbaa !8
  store i32 %7, ptr %18, align 4, !tbaa !19
  store ptr %8, ptr %19, align 8, !tbaa !16
  call void @llvm.lifetime.start.p0(i64 8, ptr %20) #6
  store i64 -1, ptr %20, align 8, !tbaa !8
  call void @llvm.lifetime.start.p0(i64 8, ptr %21) #6
  call void @llvm.lifetime.start.p0(i64 8, ptr %22) #6
  call void @llvm.lifetime.start.p0(i64 8, ptr %23) #6
  call void @llvm.lifetime.start.p0(i64 8, ptr %24) #6
  %28 = load i64, ptr %16, align 8, !tbaa !8
  %29 = icmp eq i64 %28, 1
  %30 = select i1 %29, i32 0, i32 1
  %31 = sext i32 %30 to i64
  %32 = load i64, ptr %17, align 8, !tbaa !8
  %33 = add i64 %31, %32
  store i64 %33, ptr %24, align 8, !tbaa !8
  %34 = load i64, ptr %24, align 8, !tbaa !8
  %35 = load ptr, ptr %11, align 8, !tbaa !3
  %36 = load i64, ptr %35, align 8, !tbaa !8
  %37 = icmp ugt i64 %34, %36
  br i1 %37, label %38, label %39

38:                                               ; preds = %9
  store i32 0, ptr %10, align 4
  store i32 1, ptr %25, align 4
  br label %126

39:                                               ; preds = %9
  %40 = load i64, ptr %16, align 8, !tbaa !8
  %41 = icmp ne i64 %40, 1
  br i1 %41, label %42, label %115

42:                                               ; preds = %39
  %43 = load ptr, ptr %13, align 8, !tbaa !10
  %44 = load ptr, ptr %11, align 8, !tbaa !3
  %45 = load i64, ptr %44, align 8, !tbaa !8
  %46 = sub i64 %45, 1
  %47 = getelementptr inbounds nuw i8, ptr %43, i64 %46
  %48 = load i8, ptr %47, align 1, !tbaa !18
  %49 = zext i8 %48 to i64
  store i64 %49, ptr %21, align 8, !tbaa !8
  %50 = load i32, ptr %18, align 4, !tbaa !19
  %51 = icmp ne i32 %50, 0
  br i1 %51, label %52, label %60

52:                                               ; preds = %42
  %53 = load i64, ptr %21, align 8, !tbaa !8
  %54 = add i64 %53, 1
  %55 = load i64, ptr %17, align 8, !tbaa !8
  %56 = add i64 %54, %55
  %57 = load ptr, ptr %11, align 8, !tbaa !3
  %58 = load i64, ptr %57, align 8, !tbaa !8
  %59 = sub i64 %58, %56
  store i64 %59, ptr %57, align 8, !tbaa !8
  store i32 1, ptr %10, align 4
  store i32 1, ptr %25, align 4
  br label %126

60:                                               ; preds = %42
  %61 = load ptr, ptr %11, align 8, !tbaa !3
  %62 = load i64, ptr %61, align 8, !tbaa !8
  %63 = load i64, ptr %24, align 8, !tbaa !8
  %64 = load i64, ptr %21, align 8, !tbaa !8
  %65 = add i64 %63, %64
  %66 = call i64 @constant_time_ge_s(i64 noundef %62, i64 noundef %65)
  store i64 %66, ptr %20, align 8, !tbaa !8
  store i64 256, ptr %22, align 8, !tbaa !8
  %67 = load i64, ptr %22, align 8, !tbaa !8
  %68 = load ptr, ptr %11, align 8, !tbaa !3
  %69 = load i64, ptr %68, align 8, !tbaa !8
  %70 = icmp ugt i64 %67, %69
  br i1 %70, label %71, label %74

71:                                               ; preds = %60
  %72 = load ptr, ptr %11, align 8, !tbaa !3
  %73 = load i64, ptr %72, align 8, !tbaa !8
  store i64 %73, ptr %22, align 8, !tbaa !8
  br label %74

74:                                               ; preds = %71, %60
  store i64 0, ptr %23, align 8, !tbaa !8
  br label %75

75:                                               ; preds = %101, %74
  %76 = load i64, ptr %23, align 8, !tbaa !8
  %77 = load i64, ptr %22, align 8, !tbaa !8
  %78 = icmp ult i64 %76, %77
  br i1 %78, label %79, label %104

79:                                               ; preds = %75
  call void @llvm.lifetime.start.p0(i64 1, ptr %26) #6
  %80 = load i64, ptr %21, align 8, !tbaa !8
  %81 = load i64, ptr %23, align 8, !tbaa !8
  %82 = call zeroext i8 @constant_time_ge_8_s(i64 noundef %80, i64 noundef %81)
  store i8 %82, ptr %26, align 1, !tbaa !18
  call void @llvm.lifetime.start.p0(i64 1, ptr %27) #6
  %83 = load ptr, ptr %13, align 8, !tbaa !10
  %84 = load ptr, ptr %11, align 8, !tbaa !3
  %85 = load i64, ptr %84, align 8, !tbaa !8
  %86 = sub i64 %85, 1
  %87 = load i64, ptr %23, align 8, !tbaa !8
  %88 = sub i64 %86, %87
  %89 = getelementptr inbounds nuw i8, ptr %83, i64 %88
  %90 = load i8, ptr %89, align 1, !tbaa !18
  store i8 %90, ptr %27, align 1, !tbaa !18
  %91 = load i8, ptr %26, align 1, !tbaa !18
  %92 = zext i8 %91 to i64
  %93 = load i64, ptr %21, align 8, !tbaa !8
  %94 = load i8, ptr %27, align 1, !tbaa !18
  %95 = zext i8 %94 to i64
  %96 = xor i64 %93, %95
  %97 = and i64 %92, %96
  %98 = xor i64 %97, -1
  %99 = load i64, ptr %20, align 8, !tbaa !8
  %100 = and i64 %99, %98
  store i64 %100, ptr %20, align 8, !tbaa !8
  call void @llvm.lifetime.end.p0(i64 1, ptr %27) #6
  call void @llvm.lifetime.end.p0(i64 1, ptr %26) #6
  br label %101

101:                                              ; preds = %79
  %102 = load i64, ptr %23, align 8, !tbaa !8
  %103 = add i64 %102, 1
  store i64 %103, ptr %23, align 8, !tbaa !8
  br label %75, !llvm.loop !24

104:                                              ; preds = %75
  %105 = load i64, ptr %20, align 8, !tbaa !8
  %106 = and i64 %105, 255
  %107 = call i64 @constant_time_eq_s(i64 noundef 255, i64 noundef %106)
  store i64 %107, ptr %20, align 8, !tbaa !8
  %108 = load i64, ptr %20, align 8, !tbaa !8
  %109 = load i64, ptr %21, align 8, !tbaa !8
  %110 = add i64 %109, 1
  %111 = and i64 %108, %110
  %112 = load ptr, ptr %11, align 8, !tbaa !3
  %113 = load i64, ptr %112, align 8, !tbaa !8
  %114 = sub i64 %113, %111
  store i64 %114, ptr %112, align 8, !tbaa !8
  br label %115

115:                                              ; preds = %104, %39
  %116 = load ptr, ptr %11, align 8, !tbaa !3
  %117 = load i64, ptr %12, align 8, !tbaa !8
  %118 = load ptr, ptr %13, align 8, !tbaa !10
  %119 = load ptr, ptr %14, align 8, !tbaa !12
  %120 = load ptr, ptr %15, align 8, !tbaa !14
  %121 = load i64, ptr %16, align 8, !tbaa !8
  %122 = load i64, ptr %17, align 8, !tbaa !8
  %123 = load i64, ptr %20, align 8, !tbaa !8
  %124 = load ptr, ptr %19, align 8, !tbaa !16
  %125 = call i32 @ssl3_cbc_copy_mac(ptr noundef %116, i64 noundef %117, ptr noundef %118, ptr noundef %119, ptr noundef %120, i64 noundef %121, i64 noundef %122, i64 noundef %123, ptr noundef %124)
  store i32 %125, ptr %10, align 4
  store i32 1, ptr %25, align 4
  br label %126

126:                                              ; preds = %115, %52, %38
  call void @llvm.lifetime.end.p0(i64 8, ptr %24) #6
  call void @llvm.lifetime.end.p0(i64 8, ptr %23) #6
  call void @llvm.lifetime.end.p0(i64 8, ptr %22) #6
  call void @llvm.lifetime.end.p0(i64 8, ptr %21) #6
  call void @llvm.lifetime.end.p0(i64 8, ptr %20) #6
  %127 = load i32, ptr %10, align 4
  ret i32 %127
}