; Function Attrs: nounwind uwtable
define range(i32 0, 2) i32 @tls1_cbc_remove_padding_and_mac(ptr noundef captures(none) %0, i64 noundef %1, ptr noundef %2, ptr noundef captures(address_is_null) %3, ptr noundef captures(address_is_null) %4, i64 noundef %5, i64 noundef %6, i32 noundef %7, ptr noundef %8) local_unnamed_addr #0 {
  %10 = icmp ne i64 %5, 1
  %11 = zext i1 %10 to i64
  %12 = add i64 %6, %11
  %13 = load i64, ptr %0, align 8, !tbaa !3
  %14 = icmp ugt i64 %12, %13
  br i1 %14, label %ssl3_cbc_copy_mac.exit, label %15

15:                                               ; preds = %9
  %.not = icmp eq i64 %5, 1
  br i1 %.not, label %.split, label %27

.split:                                           ; preds = %15
  %16 = sub i64 %13, %6
  %17 = icmp uge i64 %1, %6
  %18 = icmp ult i64 %6, 65
  %19 = and i1 %17, %18
  br i1 %19, label %20, label %ssl3_cbc_copy_mac.exit, !prof !8

20:                                               ; preds = %.split
  %21 = icmp eq i64 %6, 0
  br i1 %21, label %ssl3_cbc_copy_mac.exit, label %22

22:                                               ; preds = %20
  store i64 %16, ptr %0, align 8, !tbaa !3
  %.not.i = icmp eq ptr %3, null
  br i1 %.not.i, label %25, label %23

23:                                               ; preds = %22
  %24 = getelementptr inbounds nuw i8, ptr %2, i64 %16
  store ptr %24, ptr %3, align 8, !tbaa !9
  br label %25

25:                                               ; preds = %23, %22
  %.not91.i = icmp eq ptr %4, null
  br i1 %.not91.i, label %ssl3_cbc_copy_mac.exit, label %26

26:                                               ; preds = %25
  store i32 0, ptr %4, align 4, !tbaa !12
  br label %ssl3_cbc_copy_mac.exit

27:                                               ; preds = %15
  %28 = getelementptr i8, ptr %2, i64 %13
  %29 = getelementptr i8, ptr %28, i64 -1
  %30 = load i8, ptr %29, align 1, !tbaa !7
  %31 = zext i8 %30 to i64
  %.not51 = icmp eq i32 %7, 0
  br i1 %.not51, label %34, label %32

32:                                               ; preds = %27
  %.neg55 = xor i64 %6, -1
  %.neg56 = add i64 %13, %.neg55
  %33 = sub i64 %.neg56, %31
  store i64 %33, ptr %0, align 8, !tbaa !3
  br label %ssl3_cbc_copy_mac.exit

34:                                               ; preds = %27
  %35 = add i64 %12, %31
  %36 = xor i64 %35, %13
  %37 = sub i64 %13, %35
  %38 = xor i64 %37, %35
  %39 = or i64 %38, %36
  %40 = xor i64 %39, %13
  %isnotneg.i = icmp sgt i64 %40, -1
  %41 = sext i1 %isnotneg.i to i64
  %spec.select = tail call i64 @llvm.umin.i64(i64 %13, i64 256)
  %.not59 = icmp eq i64 %13, 0
  br i1 %.not59, label %.split46, label %.lr.ph

.lr.ph:                                           ; preds = %34, %.lr.ph
  %.158 = phi i64 [ %49, %.lr.ph ], [ %41, %34 ]
  %.04457 = phi i64 [ %50, %.lr.ph ], [ 0, %34 ]
  %isnotneg.i.i.not = icmp samesign ugt i64 %.04457, %31
  %42 = xor i64 %.04457, -1
  %43 = getelementptr i8, ptr %28, i64 %42
  %44 = load i8, ptr %43, align 1, !tbaa !7
  %45 = xor i8 %44, %30
  %46 = zext i8 %45 to i64
  %47 = xor i64 %46, -1
  %48 = select i1 %isnotneg.i.i.not, i64 -1, i64 %47
  %49 = and i64 %48, %.158
  %50 = add nuw nsw i64 %.04457, 1
  %exitcond.not = icmp eq i64 %50, %spec.select
  br i1 %exitcond.not, label %.split46, label %.lr.ph, !llvm.loop !18

.split46:                                         ; preds = %.lr.ph, %34
  %.1.lcssa = phi i64 [ %41, %34 ], [ %49, %.lr.ph ]
  %51 = and i64 %.1.lcssa, 255
  %52 = icmp eq i64 %51, 255
  %.neg.i.i.i = sext i1 %52 to i64
  %.neg = xor i64 %31, -1
  %.neg52 = select i1 %52, i64 %.neg, i64 0
  %53 = add i64 %.neg52, %13
  store i64 %53, ptr %0, align 8, !tbaa !3
  %54 = tail call fastcc i32 @ssl3_cbc_copy_mac(ptr noundef nonnull %0, i64 noundef %1, ptr noundef nonnull %2, ptr noundef %3, ptr noundef %4, i64 noundef %5, i64 noundef %6, i64 noundef %.neg.i.i.i, ptr noundef %8)
  br label %ssl3_cbc_copy_mac.exit

ssl3_cbc_copy_mac.exit:                           ; preds = %26, %25, %.split, %20, %.split46, %9, %32
  %.0 = phi i32 [ 1, %32 ], [ 0, %9 ], [ %54, %.split46 ], [ 0, %.split ], [ 1, %26 ], [ 1, %25 ], [ 1, %20 ]
  ret i32 %.0
}